target datalayout = "e-m:e-p270:32:32-p271:32:32-p272:64:64-i64:64-i128:128-f80:128-n8:16:32:64-S128"
target triple = "x86_64-pc-linux-gnu"

%struct.rb_ractor_local_storage_type = type { ptr, ptr }
%struct.freed_ractor_local_keys_struct = type { i32, i32, ptr }
%struct.rb_ractor_struct = type { %struct.rb_ractor_pub, %struct.rb_ractor_sync, i64, %union.pthread_cond_t, %struct.anon.17, i64, i64, i64, i32, %struct.ccan_list_node, ptr, ptr, i64, i64, i64, i64, i64, i64, ptr }
%struct.rb_ractor_pub = type { i64, i32, %struct.rb_hook_list_struct }
%struct.rb_hook_list_struct = type { ptr, i32, i32, i8, i8 }
%struct.rb_ractor_sync = type { %union.pthread_mutex_t, i8, i8, %struct.rb_ractor_queue, %struct.rb_ractor_queue, %struct.rb_ractor_basket, %struct.ractor_wait }
%union.pthread_mutex_t = type { %struct.__pthread_mutex_s }
%struct.__pthread_mutex_s = type { i32, i32, i32, i32, i32, i16, i16, %struct.__pthread_internal_list }
%struct.__pthread_internal_list = type { ptr, ptr }
%struct.rb_ractor_queue = type { ptr, i32, i32, i32, i32, i32 }
%struct.rb_ractor_basket = type { %union.anon.13, i64, %union.anon.14 }
%union.anon.13 = type { i32 }
%union.anon.14 = type { %struct.anon.15 }
%struct.anon.15 = type { i64, i8 }
%struct.ractor_wait = type { i32, i32, ptr }
%union.pthread_cond_t = type { %struct.__pthread_cond_s }
%struct.__pthread_cond_s = type { %union.__atomic_wide_counter, %union.__atomic_wide_counter, [2 x i32], [2 x i32], i32, i32, [2 x i32] }
%union.__atomic_wide_counter = type { i64 }
%struct.anon.17 = type { %struct.ccan_list_head, i32, i32, i32, %struct.rb_thread_sched, ptr, ptr }
%struct.ccan_list_head = type { %struct.ccan_list_node }
%struct.rb_thread_sched = type { %union.pthread_mutex_t, ptr, i8, i8, i8, %struct.ccan_list_head, i32, %struct.ccan_list_node }
%struct.ccan_list_node = type { ptr, ptr }
%struct.rb_thread_struct = type { %struct.ccan_list_node, i64, ptr, ptr, ptr, ptr, %struct.rb_thread_sched_item, i8, i32, i64, ptr, i64, i64, i8, i8, i32, ptr, i64, i64, i64, i64, %union.pthread_mutex_t, %struct.rb_unblock_callback, i64, ptr, %struct.ccan_list_head, ptr, %union.anon, i32, i64, ptr, i64, i32, i64, ptr, %struct.rb_ext_config }
%struct.rb_thread_sched_item = type { %struct.anon.8, %struct.rb_thread_sched_waiting, i8, i8, ptr, ptr }
%struct.anon.8 = type { %struct.ccan_list_node, %struct.ccan_list_node, %struct.ccan_list_node, %struct.ccan_list_node, %struct.ccan_list_node }
%struct.rb_thread_sched_waiting = type { i32, %struct.anon.9, %struct.ccan_list_node }
%struct.anon.9 = type { i64, i32, i32 }
%struct.rb_unblock_callback = type { ptr, ptr }
%union.anon = type { %struct.anon.10 }
%struct.anon.10 = type { i64, i64, i32 }
%struct.rb_ext_config = type { i8 }
%struct.rb_ractor_local_key_struct = type { ptr, ptr }

@freed_ractor_local_keys = internal global %struct.freed_ractor_local_keys_struct zeroinitializer, align 8

; Function Attrs: nounwind sspstrong uwtable
define internal void @ASSERT_ractor_locking(ptr noundef %0) #0 {
  %2 = alloca ptr, align 8
  store ptr %0, ptr %2, align 8, !tbaa !7
  ret void
}

; Function Attrs: nounwind sspstrong uwtable
define internal ptr @ractor_queue_at(ptr noundef %0, ptr noundef %1, i32 noundef %2) #0 {
  %4 = alloca ptr, align 8
  %5 = alloca ptr, align 8
  %6 = alloca i32, align 4
  store ptr %0, ptr %4, align 8, !tbaa !7
  store ptr %1, ptr %5, align 8, !tbaa !93
  store i32 %2, ptr %6, align 4, !tbaa !14
  %7 = load ptr, ptr %4, align 8, !tbaa !7
  %8 = icmp ne ptr %7, null
  br i1 %8, label %9, label %11

9:                                                ; preds = %3
  %10 = load ptr, ptr %4, align 8, !tbaa !7
  call void @ASSERT_ractor_locking(ptr noundef %10)
  br label %11

11:                                               ; preds = %9, %3
  %12 = load ptr, ptr %5, align 8, !tbaa !93
  %13 = getelementptr inbounds nuw %struct.rb_ractor_queue, ptr %12, i32 0, i32 0
  %14 = load ptr, ptr %13, align 8, !tbaa !219
  %15 = load ptr, ptr %5, align 8, !tbaa !93
  %16 = getelementptr inbounds nuw %struct.rb_ractor_queue, ptr %15, i32 0, i32 1
  %17 = load i32, ptr %16, align 8, !tbaa !220
  %18 = load i32, ptr %6, align 4, !tbaa !14
  %19 = add i32 %17, %18
  %20 = load ptr, ptr %5, align 8, !tbaa !93
  %21 = getelementptr inbounds nuw %struct.rb_ractor_queue, ptr %20, i32 0, i32 3
  %22 = load i32, ptr %21, align 8, !tbaa !221
  %23 = srem i32 %19, %22
  %24 = sext i32 %23 to i64
  %25 = getelementptr %struct.rb_ractor_basket, ptr %14, i64 %24
  ret ptr %25
}

; Function Attrs: nounwind sspstrong uwtable
define internal void @ractor_local_storage_mark(ptr noundef %0) #0 {
  %2 = alloca ptr, align 8
  %3 = alloca i32, align 4
  %4 = alloca ptr, align 8
  %5 = alloca i64, align 8
  %6 = alloca i64, align 8
  store ptr %0, ptr %2, align 8, !tbaa !7
  %7 = load ptr, ptr %2, align 8, !tbaa !7
  %8 = getelementptr inbounds nuw %struct.rb_ractor_struct, ptr %7, i32 0, i32 10
  %9 = load ptr, ptr %8, align 8, !tbaa !170
  %10 = icmp ne ptr %9, null
  br i1 %10, label %11, label %55

11:                                               ; preds = %1
  %12 = load ptr, ptr %2, align 8, !tbaa !7
  %13 = getelementptr inbounds nuw %struct.rb_ractor_struct, ptr %12, i32 0, i32 10
  %14 = load ptr, ptr %13, align 8, !tbaa !170
  %15 = call i32 @rb_st_foreach(ptr noundef %14, ptr noundef @ractor_local_storage_mark_i, i64 noundef 0)
  call void @llvm.lifetime.start.p0(i64 4, ptr %3) #16
  store i32 0, ptr %3, align 4, !tbaa !14
  br label %16

16:                                               ; preds = %51, %11
  %17 = load i32, ptr %3, align 4, !tbaa !14
  %18 = load i32, ptr @freed_ractor_local_keys, align 8, !tbaa !165
  %19 = icmp slt i32 %17, %18
  br i1 %19, label %21, label %20

20:                                               ; preds = %16
  call void @llvm.lifetime.end.p0(i64 4, ptr %3) #16
  br label %54

21:                                               ; preds = %16
  call void @llvm.lifetime.start.p0(i64 8, ptr %4) #16
  %22 = load ptr, ptr getelementptr inbounds nuw (%struct.freed_ractor_local_keys_struct, ptr @freed_ractor_local_keys, i32 0, i32 2), align 8, !tbaa !169
  %23 = load i32, ptr %3, align 4, !tbaa !14
  %24 = sext i32 %23 to i64
  %25 = getelementptr ptr, ptr %22, i64 %24
  %26 = load ptr, ptr %25, align 8, !tbaa !160
  store ptr %26, ptr %4, align 8, !tbaa !160
  call void @llvm.lifetime.start.p0(i64 8, ptr %5) #16
  call void @llvm.lifetime.start.p0(i64 8, ptr %6) #16
  %27 = load ptr, ptr %4, align 8, !tbaa !160
  %28 = ptrtoint ptr %27 to i64
  store i64 %28, ptr %6, align 8, !tbaa !16
  %29 = load ptr, ptr %2, align 8, !tbaa !7
  %30 = getelementptr inbounds nuw %struct.rb_ractor_struct, ptr %29, i32 0, i32 10
  %31 = load ptr, ptr %30, align 8, !tbaa !170
  %32 = call i32 @rb_st_delete(ptr noundef %31, ptr noundef %6, ptr noundef %5)
  %33 = icmp ne i32 %32, 0
  br i1 %33, label %34, label %50

34:                                               ; preds = %21
  %35 = load i64, ptr %6, align 8, !tbaa !16
  %36 = inttoptr i64 %35 to ptr
  store ptr %36, ptr %4, align 8, !tbaa !160
  %37 = getelementptr inbounds nuw %struct.rb_ractor_local_key_struct, ptr %36, i32 0, i32 0
  %38 = load ptr, ptr %37, align 8, !tbaa !162
  %39 = getelementptr inbounds nuw %struct.rb_ractor_local_storage_type, ptr %38, i32 0, i32 1
  %40 = load ptr, ptr %39, align 8, !tbaa !216
  %41 = icmp ne ptr %40, null
  br i1 %41, label %42, label %50

42:                                               ; preds = %34
  %43 = load ptr, ptr %4, align 8, !tbaa !160
  %44 = getelementptr inbounds nuw %struct.rb_ractor_local_key_struct, ptr %43, i32 0, i32 0
  %45 = load ptr, ptr %44, align 8, !tbaa !162
  %46 = getelementptr inbounds nuw %struct.rb_ractor_local_storage_type, ptr %45, i32 0, i32 1
  %47 = load ptr, ptr %46, align 8, !tbaa !216
  %48 = load i64, ptr %5, align 8, !tbaa !16
  %49 = inttoptr i64 %48 to ptr
  call void %47(ptr noundef %49)
  br label %50

50:                                               ; preds = %42, %34, %21
  call void @llvm.lifetime.end.p0(i64 8, ptr %6) #16
  call void @llvm.lifetime.end.p0(i64 8, ptr %5) #16
  call void @llvm.lifetime.end.p0(i64 8, ptr %4) #16
  br label %51

51:                                               ; preds = %50
  %52 = load i32, ptr %3, align 4, !tbaa !14
  %53 = add i32 %52, 1
  store i32 %53, ptr %3, align 4, !tbaa !14
  br label %16, !llvm.loop !218

54:                                               ; preds = %20
  br label %55

55:                                               ; preds = %54, %1
  %56 = load ptr, ptr %2, align 8, !tbaa !7
  %57 = getelementptr inbounds nuw %struct.rb_ractor_struct, ptr %56, i32 0, i32 11
  %58 = load ptr, ptr %57, align 8, !tbaa !205
  %59 = icmp ne ptr %58, null
  br i1 %59, label %60, label %64

60:                                               ; preds = %55
  %61 = load ptr, ptr %2, align 8, !tbaa !7
  %62 = getelementptr inbounds nuw %struct.rb_ractor_struct, ptr %61, i32 0, i32 11
  %63 = load ptr, ptr %62, align 8, !tbaa !205
  call void @rb_id_table_foreach_values(ptr noundef %63, ptr noundef @idkey_local_storage_mark_i, ptr noundef null)
  br label %64

64:                                               ; preds = %60, %55
  %65 = load ptr, ptr %2, align 8, !tbaa !7
  %66 = getelementptr inbounds nuw %struct.rb_ractor_struct, ptr %65, i32 0, i32 12
  %67 = load i64, ptr %66, align 8, !tbaa !212
  call void @rb_gc_mark(i64 noundef %67)
  ret void
}

; Function Attrs: inlinehint nounwind sspstrong uwtable
define internal ptr @ccan_list_node_from_off_(ptr noundef %0, i64 noundef %1) #4 {
  %3 = alloca ptr, align 8
  %4 = alloca i64, align 8
  store ptr %0, ptr %3, align 8, !tbaa !124
  store i64 %1, ptr %4, align 8, !tbaa !16
  %5 = load ptr, ptr %3, align 8, !tbaa !124
  %6 = load i64, ptr %4, align 8, !tbaa !16
  %7 = getelementptr i8, ptr %5, i64 %6
  ret ptr %7
}

; Function Attrs: inlinehint nounwind sspstrong uwtable
define internal ptr @ccan_list_node_to_off_(ptr noundef %0, i64 noundef %1) #4 {
  %3 = alloca ptr, align 8
  %4 = alloca i64, align 8
  store ptr %0, ptr %3, align 8, !tbaa !123
  store i64 %1, ptr %4, align 8, !tbaa !16
  %5 = load ptr, ptr %3, align 8, !tbaa !123
  %6 = load i64, ptr %4, align 8, !tbaa !16
  %7 = sub i64 0, %6
  %8 = getelementptr i8, ptr %5, i64 %7
  ret ptr %8
}

; Function Attrs: nounwind sspstrong uwtable
define internal void @ractor_queue_mark(ptr noundef %0) #0 {
  %2 = alloca ptr, align 8
  %3 = alloca i32, align 4
  %4 = alloca ptr, align 8
  store ptr %0, ptr %2, align 8, !tbaa !93
  call void @llvm.lifetime.start.p0(i64 4, ptr %3) #16
  store i32 0, ptr %3, align 4, !tbaa !14
  br label %5

5:                                                ; preds = %29, %1
  %6 = load i32, ptr %3, align 4, !tbaa !14
  %7 = load ptr, ptr %2, align 8, !tbaa !93
  %8 = getelementptr inbounds nuw %struct.rb_ractor_queue, ptr %7, i32 0, i32 2
  %9 = load i32, ptr %8, align 4, !tbaa !192
  %10 = icmp slt i32 %6, %9
  br i1 %10, label %12, label %11

11:                                               ; preds = %5
  call void @llvm.lifetime.end.p0(i64 4, ptr %3) #16
  br label %32

12:                                               ; preds = %5
  call void @llvm.lifetime.start.p0(i64 8, ptr %4) #16
  %13 = load ptr, ptr %2, align 8, !tbaa !93
  %14 = load i32, ptr %3, align 4, !tbaa !14
  %15 = call ptr @ractor_queue_at(ptr noundef null, ptr noundef %13, i32 noundef %14)
  store ptr %15, ptr %4, align 8, !tbaa !105
  %16 = load ptr, ptr %4, align 8, !tbaa !105
  %17 = getelementptr inbounds nuw %struct.rb_ractor_basket, ptr %16, i32 0, i32 1
  %18 = load i64, ptr %17, align 8, !tbaa !103
  call void @rb_gc_mark(i64 noundef %18)
  %19 = load ptr, ptr %4, align 8, !tbaa !105
  %20 = getelementptr inbounds nuw %struct.rb_ractor_basket, ptr %19, i32 0, i32 0
  %21 = load i32, ptr %20, align 8, !tbaa !104
  switch i32 %21, label %23 [
    i32 8, label %22
    i32 7, label %22
    i32 5, label %22
    i32 6, label %22
  ]

22:                                               ; preds = %12, %12, %12, %12
  br label %28

23:                                               ; preds = %12
  %24 = load ptr, ptr %4, align 8, !tbaa !105
  %25 = getelementptr inbounds nuw %struct.rb_ractor_basket, ptr %24, i32 0, i32 2
  %26 = getelementptr inbounds nuw %struct.anon.15, ptr %25, i32 0, i32 0
  %27 = load i64, ptr %26, align 8, !tbaa !104
  call void @rb_gc_mark(i64 noundef %27)
  br label %28

28:                                               ; preds = %23, %22
  call void @llvm.lifetime.end.p0(i64 8, ptr %4) #16
  br label %29

29:                                               ; preds = %28
  %30 = load i32, ptr %3, align 4, !tbaa !14
  %31 = add i32 %30, 1
  store i32 %31, ptr %3, align 4, !tbaa !14
  br label %5, !llvm.loop !215

32:                                               ; preds = %11
  ret void
}

; Function Attrs: nounwind sspstrong uwtable
define internal void @ractor_mark(ptr noundef %0) #0 {
  %2 = alloca ptr, align 8
  %3 = alloca ptr, align 8
  %4 = alloca ptr, align 8
  store ptr %0, ptr %2, align 8, !tbaa !124
  call void @llvm.lifetime.start.p0(i64 8, ptr %3) #16
  %5 = load ptr, ptr %2, align 8, !tbaa !124
  store ptr %5, ptr %3, align 8, !tbaa !7
  %6 = load ptr, ptr %3, align 8, !tbaa !7
  %7 = getelementptr inbounds nuw %struct.rb_ractor_struct, ptr %6, i32 0, i32 1
  %8 = getelementptr inbounds nuw %struct.rb_ractor_sync, ptr %7, i32 0, i32 3
  call void @ractor_queue_mark(ptr noundef %8)
  %9 = load ptr, ptr %3, align 8, !tbaa !7
  %10 = getelementptr inbounds nuw %struct.rb_ractor_struct, ptr %9, i32 0, i32 1
  %11 = getelementptr inbounds nuw %struct.rb_ractor_sync, ptr %10, i32 0, i32 4
  call void @ractor_queue_mark(ptr noundef %11)
  %12 = load ptr, ptr %3, align 8, !tbaa !7
  %13 = getelementptr inbounds nuw %struct.rb_ractor_struct, ptr %12, i32 0, i32 2
  %14 = load i64, ptr %13, align 8, !tbaa !213
  call void @rb_gc_mark(i64 noundef %14)
  %15 = load ptr, ptr %3, align 8, !tbaa !7
  %16 = getelementptr inbounds nuw %struct.rb_ractor_struct, ptr %15, i32 0, i32 7
  %17 = load i64, ptr %16, align 8, !tbaa !40
  call void @rb_gc_mark(i64 noundef %17)
  %18 = load ptr, ptr %3, align 8, !tbaa !7
  %19 = getelementptr inbounds nuw %struct.rb_ractor_struct, ptr %18, i32 0, i32 6
  %20 = load i64, ptr %19, align 8, !tbaa !41
  call void @rb_gc_mark(i64 noundef %20)
  %21 = load ptr, ptr %3, align 8, !tbaa !7
  %22 = getelementptr inbounds nuw %struct.rb_ractor_struct, ptr %21, i32 0, i32 13
  %23 = load i64, ptr %22, align 8, !tbaa !147
  call void @rb_gc_mark(i64 noundef %23)
  %24 = load ptr, ptr %3, align 8, !tbaa !7
  %25 = getelementptr inbounds nuw %struct.rb_ractor_struct, ptr %24, i32 0, i32 14
  %26 = load i64, ptr %25, align 8, !tbaa !148
  call void @rb_gc_mark(i64 noundef %26)
  %27 = load ptr, ptr %3, align 8, !tbaa !7
  %28 = getelementptr inbounds nuw %struct.rb_ractor_struct, ptr %27, i32 0, i32 15
  %29 = load i64, ptr %28, align 8, !tbaa !149
  call void @rb_gc_mark(i64 noundef %29)
  %30 = load ptr, ptr %3, align 8, !tbaa !7
  %31 = getelementptr inbounds nuw %struct.rb_ractor_struct, ptr %30, i32 0, i32 0
  %32 = getelementptr inbounds nuw %struct.rb_ractor_pub, ptr %31, i32 0, i32 2
  call void @rb_hook_list_mark(ptr noundef %32)
  %33 = load ptr, ptr %3, align 8, !tbaa !7
  %34 = getelementptr inbounds nuw %struct.rb_ractor_struct, ptr %33, i32 0, i32 4
  %35 = getelementptr inbounds nuw %struct.anon.17, ptr %34, i32 0, i32 1
  %36 = load i32, ptr %35, align 8, !tbaa !78
  %37 = icmp ugt i32 %36, 0
  br i1 %37, label %38, label %65

38:                                               ; preds = %1
  call void @llvm.lifetime.start.p0(i64 8, ptr %4) #16
  store ptr null, ptr %4, align 8, !tbaa !46
  store ptr null, ptr %4, align 8, !tbaa !46
  %39 = load ptr, ptr %3, align 8, !tbaa !7
  %40 = getelementptr inbounds nuw %struct.rb_ractor_struct, ptr %39, i32 0, i32 4
  %41 = getelementptr inbounds nuw %struct.anon.17, ptr %40, i32 0, i32 0
  %42 = getelementptr inbounds nuw %struct.ccan_list_head, ptr %41, i32 0, i32 0
  %43 = getelementptr inbounds nuw %struct.ccan_list_node, ptr %42, i32 0, i32 0
  %44 = load ptr, ptr %43, align 8, !tbaa !84
  %45 = call ptr @ccan_list_node_to_off_(ptr noundef %44, i64 noundef 0)
  store ptr %45, ptr %4, align 8, !tbaa !46
  br label %46

46:                                               ; preds = %58, %38
  %47 = load ptr, ptr %4, align 8, !tbaa !46
  %48 = call ptr @ccan_list_node_from_off_(ptr noundef %47, i64 noundef 0)
  %49 = load ptr, ptr %3, align 8, !tbaa !7
  %50 = getelementptr inbounds nuw %struct.rb_ractor_struct, ptr %49, i32 0, i32 4
  %51 = getelementptr inbounds nuw %struct.anon.17, ptr %50, i32 0, i32 0
  %52 = getelementptr inbounds nuw %struct.ccan_list_head, ptr %51, i32 0, i32 0
  %53 = icmp ne ptr %48, %52
  br i1 %53, label %54, label %64

54:                                               ; preds = %46
  %55 = load ptr, ptr %4, align 8, !tbaa !46
  %56 = getelementptr inbounds nuw %struct.rb_thread_struct, ptr %55, i32 0, i32 1
  %57 = load i64, ptr %56, align 8, !tbaa !120
  call void @rb_gc_mark(i64 noundef %57)
  br label %58

58:                                               ; preds = %54
  %59 = load ptr, ptr %4, align 8, !tbaa !46
  %60 = call ptr @ccan_list_node_from_off_(ptr noundef %59, i64 noundef 0)
  %61 = getelementptr inbounds nuw %struct.ccan_list_node, ptr %60, i32 0, i32 0
  %62 = load ptr, ptr %61, align 8, !tbaa !121
  %63 = call ptr @ccan_list_node_to_off_(ptr noundef %62, i64 noundef 0)
  store ptr %63, ptr %4, align 8, !tbaa !46
  br label %46, !llvm.loop !214

64:                                               ; preds = %46
  call void @llvm.lifetime.end.p0(i64 8, ptr %4) #16
  br label %65

65:                                               ; preds = %64, %1
  %66 = load ptr, ptr %3, align 8, !tbaa !7
  call void @ractor_local_storage_mark(ptr noundef %66)
  call void @llvm.lifetime.end.p0(i64 8, ptr %3) #16
  ret void
}