; Function Attrs: nounwind sspstrong uwtable
define internal void @ractor_mark(ptr noundef %0) #0 {
  %2 = alloca i64, align 8
  %3 = alloca i64, align 8
  %4 = getelementptr inbounds nuw i8, ptr %0, i64 88
  %5 = getelementptr inbounds nuw i8, ptr %0, i64 100
  %6 = load i32, ptr %5, align 4, !tbaa !86
  %7 = icmp sgt i32 %6, 0
  br i1 %7, label %.lr.ph.i, label %ractor_queue_mark.exit

.lr.ph.i:                                         ; preds = %1
  %8 = getelementptr inbounds nuw i8, ptr %0, i64 96
  %9 = getelementptr inbounds nuw i8, ptr %0, i64 104
  br label %10

10:                                               ; preds = %24, %.lr.ph.i
  %.07.i = phi i32 [ 0, %.lr.ph.i ], [ %25, %24 ]
  %11 = load ptr, ptr %4, align 8, !tbaa !88
  %12 = load i32, ptr %8, align 8, !tbaa !87
  %13 = add i32 %12, %.07.i
  %14 = load i32, ptr %9, align 8, !tbaa !85
  %15 = srem i32 %13, %14
  %16 = sext i32 %15 to i64
  %17 = getelementptr %struct.rb_ractor_basket, ptr %11, i64 %16
  %18 = getelementptr inbounds nuw i8, ptr %17, i64 8
  %19 = load i64, ptr %18, align 8, !tbaa !102
  tail call void @rb_gc_mark(i64 noundef %19) #19
  %20 = load i32, ptr %17, align 8, !tbaa !100
  %.off.i = add i32 %20, -5
  %switch.i = icmp ult i32 %.off.i, 4
  br i1 %switch.i, label %24, label %21

21:                                               ; preds = %10
  %22 = getelementptr inbounds nuw i8, ptr %17, i64 16
  %23 = load i64, ptr %22, align 8, !tbaa !100
  tail call void @rb_gc_mark(i64 noundef %23) #19
  br label %24

24:                                               ; preds = %21, %10
  %25 = add nuw nsw i32 %.07.i, 1
  %26 = load i32, ptr %5, align 4, !tbaa !86
  %27 = icmp slt i32 %25, %26
  br i1 %27, label %10, label %ractor_queue_mark.exit, !llvm.loop !226

ractor_queue_mark.exit:                           ; preds = %24, %1
  %28 = getelementptr inbounds nuw i8, ptr %0, i64 120
  %29 = getelementptr inbounds nuw i8, ptr %0, i64 132
  %30 = load i32, ptr %29, align 4, !tbaa !86
  %31 = icmp sgt i32 %30, 0
  br i1 %31, label %.lr.ph.i18, label %ractor_queue_mark.exit22

.lr.ph.i18:                                       ; preds = %ractor_queue_mark.exit
  %32 = getelementptr inbounds nuw i8, ptr %0, i64 128
  %33 = getelementptr inbounds nuw i8, ptr %0, i64 136
  br label %34

34:                                               ; preds = %48, %.lr.ph.i18
  %.07.i19 = phi i32 [ 0, %.lr.ph.i18 ], [ %49, %48 ]
  %35 = load ptr, ptr %28, align 8, !tbaa !88
  %36 = load i32, ptr %32, align 8, !tbaa !87
  %37 = add i32 %36, %.07.i19
  %38 = load i32, ptr %33, align 8, !tbaa !85
  %39 = srem i32 %37, %38
  %40 = sext i32 %39 to i64
  %41 = getelementptr %struct.rb_ractor_basket, ptr %35, i64 %40
  %42 = getelementptr inbounds nuw i8, ptr %41, i64 8
  %43 = load i64, ptr %42, align 8, !tbaa !102
  tail call void @rb_gc_mark(i64 noundef %43) #19
  %44 = load i32, ptr %41, align 8, !tbaa !100
  %.off.i20 = add i32 %44, -5
  %switch.i21 = icmp ult i32 %.off.i20, 4
  br i1 %switch.i21, label %48, label %45

45:                                               ; preds = %34
  %46 = getelementptr inbounds nuw i8, ptr %41, i64 16
  %47 = load i64, ptr %46, align 8, !tbaa !100
  tail call void @rb_gc_mark(i64 noundef %47) #19
  br label %48

48:                                               ; preds = %45, %34
  %49 = add nuw nsw i32 %.07.i19, 1
  %50 = load i32, ptr %29, align 4, !tbaa !86
  %51 = icmp slt i32 %49, %50
  br i1 %51, label %34, label %ractor_queue_mark.exit22, !llvm.loop !226

ractor_queue_mark.exit22:                         ; preds = %48, %ractor_queue_mark.exit
  %52 = getelementptr inbounds nuw i8, ptr %0, i64 200
  %53 = load i64, ptr %52, align 8, !tbaa !116
  tail call void @rb_gc_mark(i64 noundef %53) #19
  %54 = getelementptr inbounds nuw i8, ptr %0, i64 416
  %55 = load i64, ptr %54, align 8, !tbaa !35
  tail call void @rb_gc_mark(i64 noundef %55) #19
  %56 = getelementptr inbounds nuw i8, ptr %0, i64 408
  %57 = load i64, ptr %56, align 8, !tbaa !36
  tail call void @rb_gc_mark(i64 noundef %57) #19
  %58 = getelementptr inbounds nuw i8, ptr %0, i64 472
  %59 = load i64, ptr %58, align 8, !tbaa !227
  tail call void @rb_gc_mark(i64 noundef %59) #19
  %60 = getelementptr inbounds nuw i8, ptr %0, i64 480
  %61 = load i64, ptr %60, align 8, !tbaa !228
  tail call void @rb_gc_mark(i64 noundef %61) #19
  %62 = getelementptr inbounds nuw i8, ptr %0, i64 488
  %63 = load i64, ptr %62, align 8, !tbaa !229
  tail call void @rb_gc_mark(i64 noundef %63) #19
  %64 = getelementptr inbounds nuw i8, ptr %0, i64 16
  tail call void @rb_hook_list_mark(ptr noundef nonnull %64) #19
  %65 = getelementptr inbounds nuw i8, ptr %0, i64 256
  %66 = getelementptr inbounds nuw i8, ptr %0, i64 272
  %67 = load i32, ptr %66, align 8, !tbaa !75
  %.not = icmp eq i32 %67, 0
  br i1 %.not, label %.loopexit, label %.preheader

.preheader:                                       ; preds = %ractor_queue_mark.exit22
  %.024 = load ptr, ptr %65, align 8, !tbaa !77
  %.not1725 = icmp eq ptr %.024, %65
  br i1 %.not1725, label %.loopexit, label %.lr.ph

.lr.ph:                                           ; preds = %.preheader, %.lr.ph
  %.026 = phi ptr [ %.0, %.lr.ph ], [ %.024, %.preheader ]
  %68 = getelementptr inbounds nuw i8, ptr %.026, i64 16
  %69 = load i64, ptr %68, align 8, !tbaa !126
  tail call void @rb_gc_mark(i64 noundef %69) #19
  %.0 = load ptr, ptr %.026, align 8, !tbaa !77
  %.not17 = icmp eq ptr %.0, %65
  br i1 %.not17, label %.loopexit, label %.lr.ph, !llvm.loop !230

.loopexit:                                        ; preds = %.lr.ph, %.preheader, %ractor_queue_mark.exit22
  %70 = getelementptr inbounds nuw i8, ptr %0, i64 448
  %71 = load ptr, ptr %70, align 8, !tbaa !188
  %.not.i = icmp eq ptr %71, null
  br i1 %.not.i, label %.loopexit.i, label %72

72:                                               ; preds = %.loopexit
  %73 = tail call i32 @rb_st_foreach(ptr noundef nonnull %71, ptr noundef nonnull @ractor_local_storage_mark_i, i64 noundef 0) #19
  %74 = load i32, ptr @freed_ractor_local_keys.0, align 8, !tbaa !181
  %75 = icmp sgt i32 %74, 0
  br i1 %75, label %.lr.ph.i23, label %.loopexit.i

.lr.ph.i23:                                       ; preds = %72, %91
  %indvars.iv.i = phi i64 [ %indvars.iv.next.i, %91 ], [ 0, %72 ]
  %76 = load ptr, ptr @freed_ractor_local_keys.2, align 8, !tbaa !185
  %77 = getelementptr ptr, ptr %76, i64 %indvars.iv.i
  %78 = load ptr, ptr %77, align 8, !tbaa !186
  call void @llvm.lifetime.start.p0(i64 8, ptr nonnull %2) #19
  call void @llvm.lifetime.start.p0(i64 8, ptr nonnull %3) #19
  %79 = ptrtoint ptr %78 to i64
  store i64 %79, ptr %3, align 8, !tbaa !80
  %80 = load ptr, ptr %70, align 8, !tbaa !188
  %81 = call i32 @rb_st_delete(ptr noundef %80, ptr noundef nonnull %3, ptr noundef nonnull %2) #19
  %.not14.i = icmp eq i32 %81, 0
  br i1 %.not14.i, label %91, label %82

82:                                               ; preds = %.lr.ph.i23
  %83 = load i64, ptr %3, align 8, !tbaa !80
  %84 = inttoptr i64 %83 to ptr
  %85 = load ptr, ptr %84, align 8, !tbaa !177
  %86 = getelementptr inbounds nuw i8, ptr %85, i64 8
  %87 = load ptr, ptr %86, align 8, !tbaa !231
  %.not15.i = icmp eq ptr %87, null
  br i1 %.not15.i, label %91, label %88

88:                                               ; preds = %82
  %89 = load i64, ptr %2, align 8, !tbaa !80
  %90 = inttoptr i64 %89 to ptr
  call void %87(ptr noundef %90) #19
  br label %91

91:                                               ; preds = %88, %82, %.lr.ph.i23
  call void @llvm.lifetime.end.p0(i64 8, ptr nonnull %3) #19
  call void @llvm.lifetime.end.p0(i64 8, ptr nonnull %2) #19
  %indvars.iv.next.i = add nuw nsw i64 %indvars.iv.i, 1
  %92 = load i32, ptr @freed_ractor_local_keys.0, align 8, !tbaa !181
  %93 = sext i32 %92 to i64
  %94 = icmp slt i64 %indvars.iv.next.i, %93
  br i1 %94, label %.lr.ph.i23, label %.loopexit.i, !llvm.loop !233

.loopexit.i:                                      ; preds = %91, %72, %.loopexit
  %95 = getelementptr inbounds nuw i8, ptr %0, i64 456
  %96 = load ptr, ptr %95, align 8, !tbaa !219
  %.not13.i = icmp eq ptr %96, null
  br i1 %.not13.i, label %ractor_local_storage_mark.exit, label %97

97:                                               ; preds = %.loopexit.i
  call void @rb_id_table_foreach_values(ptr noundef nonnull %96, ptr noundef nonnull @idkey_local_storage_mark_i, ptr noundef null) #19
  br label %ractor_local_storage_mark.exit

ractor_local_storage_mark.exit:                   ; preds = %.loopexit.i, %97
  %98 = getelementptr inbounds nuw i8, ptr %0, i64 464
  %99 = load i64, ptr %98, align 8, !tbaa !225
  call void @rb_gc_mark(i64 noundef %99) #19
  ret void
}